LIBRARY    ThreadTest_cpp
EXPORTS 
	?G__ThreadTest_cpp_ACLiC_dictLN_TList@@3UG__linked_taginfo@@A 	 DATA
	?G__ThreadTest_cpp_ACLiC_dictLN_TMutex@@3UG__linked_taginfo@@A 	 DATA
	?G__ThreadTest_cpp_ACLiC_dictLN_TSemaphore@@3UG__linked_taginfo@@A 	 DATA
	?G__ThreadTest_cpp_ACLiC_dictLN_iteratorlErandom_access_iterator_tagcOcharcOlongcOcharmUcOcharaNgR@@3UG__linked_taginfo@@A 	 DATA
	?G__ThreadTest_cpp_ACLiC_dictLN_vectorlEunsignedsPintcOallocatorlEunsignedsPintgRsPgR@@3UG__linked_taginfo@@A 	 DATA
	?G__ThreadTest_cpp_ACLiC_dictLN_vectorlEROOTcLcLTSchemaHelpercOallocatorlEROOTcLcLTSchemaHelpergRsPgR@@3UG__linked_taginfo@@A 	 DATA
	?G__ThreadTest_cpp_ACLiC_dictLN__RanitlEROOTcLcLTSchemaHelpercOlongcOROOTcLcLTSchemaHelpermUcOROOTcLcLTSchemaHelperaNgR@@3UG__linked_taginfo@@A 	 DATA
	?G__ThreadTest_cpp_ACLiC_dictLN_iteratorlErandom_access_iterator_tagcOROOTcLcLTSchemaHelpercOlongcOROOTcLcLTSchemaHelpermUcOROOTcLcLTSchemaHelperaNgR@@3UG__linked_taginfo@@A 	 DATA
	?G__ThreadTest_cpp_ACLiC_dictLN_reverse_iteratorlEvectorlEROOTcLcLTSchemaHelpercOallocatorlEROOTcLcLTSchemaHelpergRsPgRcLcLiteratorgR@@3UG__linked_taginfo@@A 	 DATA
	?G__ThreadTest_cpp_ACLiC_dictLN_reverse_iteratorlEvectorlEROOTcLcLTSchemaHelpercOallocatorlEROOTcLcLTSchemaHelpergRsPgRcLcLconst_iteratorgR@@3UG__linked_taginfo@@A 	 DATA
	?G__ThreadTest_cpp_ACLiC_dictLN_vectorlETVirtualArraymUcOallocatorlETVirtualArraymUgRsPgR@@3UG__linked_taginfo@@A 	 DATA
	?G__ThreadTest_cpp_ACLiC_dictLN__RanitlETVirtualArraymUcOlongcOTVirtualArraymUmUcOTVirtualArraymUaNgR@@3UG__linked_taginfo@@A 	 DATA
	?G__ThreadTest_cpp_ACLiC_dictLN_iteratorlErandom_access_iterator_tagcOTVirtualArraymUcOlongcOTVirtualArraymUmUcOTVirtualArraymUaNgR@@3UG__linked_taginfo@@A 	 DATA
	?G__ThreadTest_cpp_ACLiC_dictLN_reverse_iteratorlEvectorlETVirtualArraymUcOallocatorlETVirtualArraymUgRsPgRcLcLiteratorgR@@3UG__linked_taginfo@@A 	 DATA
	?G__ThreadTest_cpp_ACLiC_dictLN_reverse_iteratorlEvectorlETVirtualArraymUcOallocatorlETVirtualArraymUgRsPgRcLcLconst_iteratorgR@@3UG__linked_taginfo@@A 	 DATA
	?G__ThreadTest_cpp_ACLiC_dictLN_vectorlETStringcOallocatorlETStringgRsPgR@@3UG__linked_taginfo@@A 	 DATA
	?G__ThreadTest_cpp_ACLiC_dictLN__RanitlETStringcOlongcOTStringmUcOTStringaNgR@@3UG__linked_taginfo@@A 	 DATA
	?G__ThreadTest_cpp_ACLiC_dictLN_iteratorlErandom_access_iterator_tagcOTStringcOlongcOTStringmUcOTStringaNgR@@3UG__linked_taginfo@@A 	 DATA
	?G__ThreadTest_cpp_ACLiC_dictLN_reverse_iteratorlEvectorlETStringcOallocatorlETStringgRsPgRcLcLiteratorgR@@3UG__linked_taginfo@@A 	 DATA
	?G__ThreadTest_cpp_ACLiC_dictLN_reverse_iteratorlEvectorlETStringcOallocatorlETStringgRsPgRcLcLconst_iteratorgR@@3UG__linked_taginfo@@A 	 DATA
	?G__ThreadTest_cpp_ACLiC_dictLN_iteratorlEbidirectional_iterator_tagcOTObjectmUcOlongcOconstsPTObjectmUmUcOconstsPTObjectmUaNgR@@3UG__linked_taginfo@@A 	 DATA
	?G__ThreadTest_cpp_ACLiC_dictLN_ThreadTest@@3UG__linked_taginfo@@A 	 DATA
	??2@YAPAXIPAX@Z
	??3@YAXPAX0@Z
	??2TObject@@SAPAXI@Z
	??1TVirtualMutex@@UAE@XZ
	??_R0?AVTVirtualMutex@@@8 	 DATA
	??_R0?AVTObject@@@8 	 DATA
	?Clear@TObject@@UAEXPBD@Z
	?GetOption@TObject@@UBEPBDXZ
	?IsSortable@TObject@@UBE_NXZ
	?IsA@TVirtualMutex@@UBEPAVTClass@@XZ
	??1TMutex@@UAE@XZ
	??_R0?AVTMutex@@@8 	 DATA
	?IsA@TMutex@@UBEPAVTClass@@XZ
	??0TCollection@@IAE@XZ
	??_R0?AVTCollection@@@8 	 DATA
	??1TCollection@@UAE@XZ
	?GetEntries@TCollection@@UBEHXZ
	?GetSize@TCollection@@UBEHXZ
	?Hash@TCollection@@UBEKXZ
	?IsEmpty@TCollection@@UBE_NXZ
	?IsFolder@TCollection@@UBE_NXZ
	?IsSortable@TCollection@@UBE_NXZ
	?MakeReverseIterator@TCollection@@UBEPAVTIterator@@XZ
	?IsA@TCollection@@UBEPAVTClass@@XZ
	??0TSeqCollection@@IAE@XZ
	??_R0?AVTSeqCollection@@@8 	 DATA
	?Changed@TSeqCollection@@MAEXXZ
	??1TSeqCollection@@UAE@XZ
	?Add@TSeqCollection@@UAEXPAVTObject@@@Z
	?RemoveFirst@TSeqCollection@@UAEXXZ
	?RemoveLast@TSeqCollection@@UAEXXZ
	?RemoveAt@TSeqCollection@@UAEPAVTObject@@H@Z
	?RemoveAfter@TSeqCollection@@UAEXPAVTObject@@@Z
	?RemoveBefore@TSeqCollection@@UAEXPAVTObject@@@Z
	?IsSorted@TSeqCollection@@UBE_NXZ
	?IsA@TSeqCollection@@UBEPAVTClass@@XZ
	??1TSemaphore@@UAE@XZ
	??_R0?AVTSemaphore@@@8 	 DATA
	?IsA@TSemaphore@@UBEPAVTClass@@XZ
	??0TList@@QAE@XZ
	??_R0?AVTList@@@8 	 DATA
	?Add@TList@@UAEXPAVTObject@@@Z
	?Add@TList@@UAEXPAVTObject@@PBD@Z
	?FirstLink@TList@@UBEPAVTObjLink@@XZ
	?LastLink@TList@@UBEPAVTObjLink@@XZ
	?IsA@TList@@UBEPAVTClass@@XZ
	??0ThreadTest@@QAE@H@Z
	??1ThreadTest@@QAE@XZ
	?readNext@ThreadTest@@AAE_NH@Z
	?analyze@ThreadTest@@AAEXH@Z
	?write@ThreadTest@@AAEXH@Z
	G__cpp_dllrevThreadTest_cpp_ACLiC_dict
	?sizep2memfunc@G__Sizep2memfuncThreadTest_cpp_ACLiC_dict@@QAEIXZ
	G__cpp_setup_inheritanceThreadTest_cpp_ACLiC_dict
	G__cpp_setup_typetableThreadTest_cpp_ACLiC_dict
	G__cpp_setup_memvarThreadTest_cpp_ACLiC_dict
	G__cpp_setup_memfuncThreadTest_cpp_ACLiC_dict
	G__cpp_setup_globalThreadTest_cpp_ACLiC_dict
	G__cpp_setup_funcThreadTest_cpp_ACLiC_dict
	G__cpp_reset_tagtableThreadTest_cpp_ACLiC_dict
	??1G__cpp_setup_initThreadTest_cpp_ACLiC_dict@@QAE@XZ
	??$InspectMember@VTSemaphore@@@TMemberInspector@@QAEXAAVTSemaphore@@PBD@Z
	??$InspectMember@VTMutex@@@TMemberInspector@@QAEXAAVTMutex@@PBD@Z
	??$InspectMember@VTList@@@TMemberInspector@@QAEXAAVTList@@PBD@Z
	?exec@ThreadTest@@CAPAXPAX@Z
	?run@ThreadTest@@QAEX_N@Z
	G__set_cpp_environmentThreadTest_cpp_ACLiC_dict
	??0G__Sizep2memfuncThreadTest_cpp_ACLiC_dict@@QAE@XZ
	?G__get_sizep2memfuncThreadTest_cpp_ACLiC_dict@@YAIXZ
	G__cpp_setup_tagtableThreadTest_cpp_ACLiC_dict
	G__cpp_setupThreadTest_cpp_ACLiC_dict
	??0G__cpp_setup_initThreadTest_cpp_ACLiC_dict@@QAE@XZ
	??_R0?AVThreadTest@@@8 	 DATA
	?GenerateInitInstance@ROOT@@YAPAVTGenericClassInfo@1@PBVThreadTest@@@Z
	?ThreadTest_ShowMembers@ROOT@@YAXPAXAAVTMemberInspector@@@Z
	?G__cpp_setup_initializerThreadTest_cpp_ACLiC_dict@@3VG__cpp_setup_initThreadTest_cpp_ACLiC_dict@@A 	 DATA
